; Function Attrs: nounwind sspstrong uwtable
define internal range(i32 0, 9) i32 @riscv_gdb_set_fpu(ptr noundef %0, ptr noundef readonly captures(none) %1, i32 noundef %2) #0 {
  %4 = tail call ptr @object_dynamic_cast_assert(ptr noundef %0, ptr noundef nonnull @.str.5, ptr noundef nonnull @.str.6, i32 noundef 56, ptr noundef nonnull @__func__.RISCV_CPU) #7
  %5 = icmp slt i32 %2, 32
  br i1 %5, label %6, label %10

6:                                                ; preds = %3
  %.val = load i64, ptr %1, align 1
  %7 = getelementptr inbounds nuw i8, ptr %4, i64 15880
  %8 = sext i32 %2 to i64
  %9 = getelementptr inbounds [32 x i64], ptr %7, i64 0, i64 %8
  store i64 %.val, ptr %9, align 8
  br label %10

10:                                               ; preds = %3, %6
  %.0 = phi i32 [ 8, %6 ], [ 0, %3 ]
  ret i32 %.0
}